; Function Attrs: mustprogress nofree norecurse nosync nounwind willreturn memory(read, inaccessiblemem: none) uwtable
define hidden noundef zeroext i1 @_ZNK14bv_recognizers10is_bv_sortEPK4sort(ptr noundef nonnull readonly align 4 captures(none) dereferenceable(4) %0, ptr noundef readonly captures(none) %1) local_unnamed_addr #11 align 2 {
  %3 = getelementptr inbounds nuw i8, ptr %1, i64 24
  %4 = load ptr, ptr %3, align 8, !tbaa !134
  %5 = icmp eq ptr %4, null
  br i1 %5, label %_ZNK4decl13get_decl_kindEv.exit.thread, label %_ZNK4decl13get_family_idEv.exit.thread

_ZNK4decl13get_family_idEv.exit.thread:           ; preds = %2
  %6 = load i32, ptr %4, align 8, !tbaa !19
  %7 = load i32, ptr %0, align 4, !tbaa !179
  %8 = icmp eq i32 %6, %7
  br i1 %8, label %_ZNK4decl13get_decl_kindEv.exit, label %_ZNK4decl13get_decl_kindEv.exit.thread

_ZNK4decl13get_decl_kindEv.exit:                  ; preds = %_ZNK4decl13get_family_idEv.exit.thread
  %9 = getelementptr inbounds nuw i8, ptr %4, i64 4
  %10 = load i32, ptr %9, align 4, !tbaa !137
  %11 = icmp eq i32 %10, 0
  br i1 %11, label %12, label %_ZNK4decl13get_decl_kindEv.exit.thread

12:                                               ; preds = %_ZNK4decl13get_decl_kindEv.exit
  %13 = getelementptr inbounds nuw i8, ptr %4, i64 8
  %14 = load ptr, ptr %13, align 8, !tbaa !37
  %15 = icmp eq ptr %14, null
  br i1 %15, label %_ZNK4decl13get_decl_kindEv.exit.thread, label %16

16:                                               ; preds = %12
  %17 = getelementptr inbounds i8, ptr %14, i64 -4
  %18 = load i32, ptr %17, align 4, !tbaa !38
  %19 = icmp eq i32 %18, 1
  br label %_ZNK4decl13get_decl_kindEv.exit.thread

_ZNK4decl13get_decl_kindEv.exit.thread:           ; preds = %16, %12, %2, %_ZNK4decl13get_family_idEv.exit.thread, %_ZNK4decl13get_decl_kindEv.exit
  %20 = phi i1 [ false, %_ZNK4decl13get_decl_kindEv.exit ], [ false, %_ZNK4decl13get_family_idEv.exit.thread ], [ false, %2 ], [ %19, %16 ], [ false, %12 ]
  ret i1 %20
}